; Function Attrs: nounwind uwtable
define <2 x float> @b2Body_GetLinearVelocity(i64 %0) local_unnamed_addr #8 {
  %.sroa.2.0.extract.shift = lshr i64 %0, 32
  %2 = trunc nuw i64 %.sroa.2.0.extract.shift to i32
  %3 = and i32 %2, 65535
  %4 = tail call ptr @b2GetWorld(i32 noundef %3) #10
  %5 = getelementptr inbounds nuw i8, ptr %4, i64 1032
  %.val.i = load ptr, ptr %5, align 8, !tbaa !10
  %6 = shl i64 %0, 32
  %sext.i = add i64 %6, -4294967296
  %7 = ashr exact i64 %sext.i, 25
  %8 = getelementptr inbounds i8, ptr %.val.i, i64 %7
  %9 = getelementptr inbounds nuw i8, ptr %8, i64 40
  %10 = load i32, ptr %9, align 8, !tbaa !19
  %11 = icmp eq i32 %10, 2
  br i1 %11, label %b2GetBodyState.exit, label %b2GetBodyState.exit.thread

b2GetBodyState.exit:                              ; preds = %1
  %12 = getelementptr inbounds nuw i8, ptr %4, i64 1072
  %.val.i7 = load ptr, ptr %12, align 8, !tbaa !24
  %13 = getelementptr inbounds nuw i8, ptr %.val.i7, i64 192
  %.val5.i = load ptr, ptr %13, align 8, !tbaa !18
  %.not = icmp eq ptr %.val5.i, null
  br i1 %.not, label %b2GetBodyState.exit.thread, label %14

14:                                               ; preds = %b2GetBodyState.exit
  %15 = getelementptr inbounds nuw i8, ptr %8, i64 44
  %16 = load i32, ptr %15, align 4, !tbaa !27
  %17 = sext i32 %16 to i64
  %18 = getelementptr inbounds %struct.b2BodyState, ptr %.val5.i, i64 %17
  %.sroa.05.0.copyload = load <2 x float>, ptr %18, align 4
  br label %b2GetBodyState.exit.thread

b2GetBodyState.exit.thread:                       ; preds = %1, %b2GetBodyState.exit, %14
  %.sroa.05.0 = phi <2 x float> [ %.sroa.05.0.copyload, %14 ], [ zeroinitializer, %b2GetBodyState.exit ], [ zeroinitializer, %1 ]
  ret <2 x float> %.sroa.05.0
}